target datalayout = "e-m:e-p270:32:32-p271:32:32-p272:64:64-i64:64-i128:128-f80:128-n8:16:32:64-S128"
target triple = "x86_64-pc-linux-gnu"

%"class.V3List<V3GraphEdge, &V3GraphEdge::iLinks>::SimpleItertatorImpl" = type { ptr }
%class.V3ErrorCode = type { i8 }
%class.V3GraphVertex = type { ptr, %class.V3ListLinks, %class.V3List.5, %class.V3List.6, double, i32, i32, %union.anon.7 }
%class.V3ListLinks = type { ptr, ptr }
%class.V3List.5 = type { ptr, ptr }
%class.V3List.6 = type { ptr, ptr }
%union.anon.7 = type { ptr }
%"class.V3Sched::(anonymous namespace)::SchedReplicateVertex" = type <{ %class.V3GraphVertex, i8, [7 x i8] }>
%class.V3GraphEdge = type { ptr, %class.V3ListLinks.32, %class.V3ListLinks.32, ptr, ptr, i32, i8, %union.anon.33 }
%class.V3ListLinks.32 = type { ptr, ptr }
%union.anon.33 = type { ptr }

@_ZZN7V3Sched12_GLOBAL__N_120SchedReplicateVertex11rttiClassIdEvE15aStaticVariable = internal global i8 0, align 1
@.str.37 = private unnamed_addr constant [111 x i8] c"generated/home/dtcxzyw/WorkSpace/Projects/compilers/llvm-opt-benchmark/bench/verilator/verilator/src/V3Graph.h\00", align 1
@.str.38 = private unnamed_addr constant [38 x i8] c"V3GraphVertex is not of expected type\00", align 1

; Function Attrs: mustprogress nounwind uwtable
define internal noundef i64 @_ZN7V3Sched12_GLOBAL__N_120SchedReplicateVertex11rttiClassIdEv() #5 align 2 {
  ret i64 ptrtoint (ptr @_ZZN7V3Sched12_GLOBAL__N_120SchedReplicateVertex11rttiClassIdEvE15aStaticVariable to i64)
}

; Function Attrs: mustprogress nounwind uwtable
define linkonce_odr dso_local void @_ZN11V3ErrorCodeC2ENS_2enE(ptr noundef nonnull align 1 dereferenceable(1) %0, i8 noundef zeroext %1) unnamed_addr #5 comdat align 2 {
  %3 = alloca ptr, align 8
  %4 = alloca i8, align 1
  store ptr %0, ptr %3, align 8
  store i8 %1, ptr %4, align 1
  %5 = load ptr, ptr %3, align 8
  %6 = getelementptr inbounds %class.V3ErrorCode, ptr %5, i32 0, i32 0
  %7 = load i8, ptr %4, align 1
  store i8 %7, ptr %6, align 1
  ret void
}

; Function Attrs: mustprogress uwtable
define internal noundef zeroext i1 @_ZNK13V3GraphVertex2isIN7V3Sched12_GLOBAL__N_120SchedReplicateVertexEEEbv(ptr noundef nonnull align 8 dereferenceable(80) %0) #4 align 2 {
  %2 = alloca ptr, align 8
  store ptr %0, ptr %2, align 8
  %3 = load ptr, ptr %2, align 8
  %4 = call noundef i64 @_ZN7V3Sched12_GLOBAL__N_120SchedReplicateVertex11rttiClassIdEv()
  %5 = load ptr, ptr %3, align 8
  %6 = getelementptr inbounds ptr, ptr %5, i64 0
  %7 = load ptr, ptr %6, align 8
  %8 = call noundef zeroext i1 %7(ptr noundef nonnull align 8 dereferenceable(80) %3, i64 noundef %4)
  ret i1 %8
}

; Function Attrs: mustprogress nounwind uwtable
define linkonce_odr dso_local void @_ZN13V3GraphVertex4userEj(ptr noundef nonnull align 8 dereferenceable(80) %0, i32 noundef %1) #5 comdat align 2 {
  %3 = alloca ptr, align 8
  %4 = alloca i32, align 4
  store ptr %0, ptr %3, align 8
  store i32 %1, ptr %4, align 4
  %5 = load ptr, ptr %3, align 8
  %6 = load i32, ptr %4, align 4
  %7 = getelementptr inbounds %class.V3GraphVertex, ptr %5, i32 0, i32 7
  store i32 %6, ptr %7, align 8
  ret void
}

; Function Attrs: mustprogress nounwind uwtable
define internal void @_ZN7V3Sched12_GLOBAL__N_120SchedReplicateVertex17addDrivingRegionsEh(ptr noundef nonnull align 8 dereferenceable(81) %0, i8 noundef zeroext %1) #5 align 2 {
  %3 = alloca ptr, align 8
  %4 = alloca i8, align 1
  store ptr %0, ptr %3, align 8
  store i8 %1, ptr %4, align 1
  %5 = load ptr, ptr %3, align 8
  %6 = getelementptr inbounds %"class.V3Sched::(anonymous namespace)::SchedReplicateVertex", ptr %5, i32 0, i32 1
  %7 = load i8, ptr %6, align 8
  %8 = zext i8 %7 to i32
  %9 = load i8, ptr %4, align 1
  %10 = zext i8 %9 to i32
  %11 = or i32 %8, %10
  %12 = trunc i32 %11 to i8
  %13 = getelementptr inbounds %"class.V3Sched::(anonymous namespace)::SchedReplicateVertex", ptr %5, i32 0, i32 1
  store i8 %12, ptr %13, align 8
  ret void
}

; Function Attrs: mustprogress nounwind uwtable
define internal noundef zeroext i8 @_ZNK7V3Sched12_GLOBAL__N_120SchedReplicateVertex14drivingRegionsEv(ptr noundef nonnull align 8 dereferenceable(81) %0) #5 align 2 {
  %2 = alloca ptr, align 8
  store ptr %0, ptr %2, align 8
  %3 = load ptr, ptr %2, align 8
  %4 = getelementptr inbounds %"class.V3Sched::(anonymous namespace)::SchedReplicateVertex", ptr %3, i32 0, i32 1
  %5 = load i8, ptr %4, align 8
  ret i8 %5
}

; Function Attrs: mustprogress uwtable
define internal noundef ptr @_ZN13V3GraphVertex2asIN7V3Sched12_GLOBAL__N_120SchedReplicateVertexEEEPT_v(ptr noundef nonnull align 8 dereferenceable(80) %0) #4 align 2 {
  %2 = alloca ptr, align 8
  %3 = alloca %class.V3ErrorCode, align 1
  store ptr %0, ptr %2, align 8
  %4 = load ptr, ptr %2, align 8
  br label %5

5:                                                ; preds = %1
  %6 = call noundef zeroext i1 @_ZNK13V3GraphVertex2isIN7V3Sched12_GLOBAL__N_120SchedReplicateVertexEEEbv(ptr noundef nonnull align 8 dereferenceable(80) %4)
  %7 = xor i1 %6, true
  %8 = xor i1 %7, true
  %9 = xor i1 %8, true
  br i1 %9, label %10, label %16

10:                                               ; preds = %5
  call void @_ZN11V3ErrorCodeC2ENS_2enE(ptr noundef nonnull align 1 dereferenceable(1) %3, i8 noundef zeroext 4)
  %11 = getelementptr inbounds %class.V3ErrorCode, ptr %3, i32 0, i32 0
  %12 = load i8, ptr %11, align 1
  %13 = call noundef nonnull align 8 dereferenceable(112) ptr @_ZN7V3Error19v3errorPrepFileLineB5cxx11E11V3ErrorCodePKcib(i8 %12, ptr noundef @.str.37, i32 noundef 258, i1 noundef zeroext true)
  %14 = call noundef nonnull align 8 dereferenceable(112) ptr @_ZN7V3Error10v3errorStrB5cxx11Ev()
  %15 = call noundef nonnull align 8 dereferenceable(8) ptr @_ZStlsISt11char_traitsIcEERSt13basic_ostreamIcT_ES5_PKc(ptr noundef nonnull align 8 dereferenceable(8) %14, ptr noundef @.str.38)
  call void @_ZNK13V3GraphVertex15v3errorEndFatalERNSt7__cxx1119basic_ostringstreamIcSt11char_traitsIcESaIcEEE(ptr noundef nonnull align 8 dereferenceable(80) %4, ptr noundef nonnull align 8 dereferenceable(112) %15)
  br label %16

16:                                               ; preds = %10, %5
  br label %17

17:                                               ; preds = %16
  ret ptr %4
}

; Function Attrs: mustprogress nounwind uwtable
define linkonce_odr dso_local noundef ptr @_ZNK11V3GraphEdge5frompEv(ptr noundef nonnull align 8 dereferenceable(72) %0) #5 comdat align 2 {
  %2 = alloca ptr, align 8
  store ptr %0, ptr %2, align 8
  %3 = load ptr, ptr %2, align 8
  %4 = getelementptr inbounds %class.V3GraphEdge, ptr %3, i32 0, i32 3
  %5 = load ptr, ptr %4, align 8
  ret ptr %5
}

; Function Attrs: mustprogress nounwind uwtable
define linkonce_odr dso_local noundef nonnull align 8 dereferenceable(16) ptr @_ZN11V3GraphEdge6iLinksEv(ptr noundef nonnull align 8 dereferenceable(72) %0) #5 comdat align 2 {
  %2 = alloca ptr, align 8
  store ptr %0, ptr %2, align 8
  %3 = load ptr, ptr %2, align 8
  %4 = getelementptr inbounds %class.V3GraphEdge, ptr %3, i32 0, i32 2
  ret ptr %4
}

; Function Attrs: mustprogress uwtable
define linkonce_odr dso_local ptr @_ZN6V3ListI11V3GraphEdgeXadL_ZNS0_6iLinksEvEES0_E3endEv(ptr noundef nonnull align 8 dereferenceable(16) %0) #4 comdat align 2 {
  %2 = alloca ptr, align 8
  %3 = alloca ptr, align 8
  %4 = alloca %"class.V3List<V3GraphEdge, &V3GraphEdge::iLinks>::SimpleItertatorImpl", align 8
  %5 = alloca ptr, align 8
  store ptr %0, ptr %5, align 8
  store ptr %4, ptr %2, align 8
  store ptr null, ptr %3, align 8
  %6 = load ptr, ptr %2, align 8
  %7 = load ptr, ptr %3, align 8
  store ptr %7, ptr %6, align 8
  %8 = getelementptr inbounds %"class.V3List<V3GraphEdge, &V3GraphEdge::iLinks>::SimpleItertatorImpl", ptr %4, i32 0, i32 0
  %9 = load ptr, ptr %8, align 8
  ret ptr %9
}

; Function Attrs: mustprogress uwtable
define linkonce_odr dso_local ptr @_ZN6V3ListI11V3GraphEdgeXadL_ZNS0_6iLinksEvEES0_E5beginEv(ptr noundef nonnull align 8 dereferenceable(16) %0) #4 comdat align 2 {
  %2 = alloca ptr, align 8
  %3 = alloca ptr, align 8
  %4 = alloca %"class.V3List<V3GraphEdge, &V3GraphEdge::iLinks>::SimpleItertatorImpl", align 8
  %5 = alloca ptr, align 8
  store ptr %0, ptr %5, align 8
  %6 = load ptr, ptr %5, align 8
  %7 = getelementptr inbounds %class.V3List.6, ptr %6, i32 0, i32 0
  %8 = load ptr, ptr %7, align 8
  store ptr %4, ptr %2, align 8
  store ptr %8, ptr %3, align 8
  %9 = load ptr, ptr %2, align 8
  %10 = load ptr, ptr %3, align 8
  store ptr %10, ptr %9, align 8
  %11 = getelementptr inbounds %"class.V3List<V3GraphEdge, &V3GraphEdge::iLinks>::SimpleItertatorImpl", ptr %4, i32 0, i32 0
  %12 = load ptr, ptr %11, align 8
  ret ptr %12
}

; Function Attrs: mustprogress nounwind uwtable
define linkonce_odr dso_local noundef nonnull align 8 dereferenceable(16) ptr @_ZN13V3GraphVertex7inEdgesEv(ptr noundef nonnull align 8 dereferenceable(80) %0) #5 comdat align 2 {
  %2 = alloca ptr, align 8
  store ptr %0, ptr %2, align 8
  %3 = load ptr, ptr %2, align 8
  %4 = getelementptr inbounds %class.V3GraphVertex, ptr %3, i32 0, i32 3
  ret ptr %4
}

; Function Attrs: mustprogress nounwind uwtable
define linkonce_odr dso_local noundef i32 @_ZNK13V3GraphVertex4userEv(ptr noundef nonnull align 8 dereferenceable(80) %0) #5 comdat align 2 {
  %2 = alloca ptr, align 8
  store ptr %0, ptr %2, align 8
  %3 = load ptr, ptr %2, align 8
  %4 = getelementptr inbounds %class.V3GraphVertex, ptr %3, i32 0, i32 7
  %5 = load i32, ptr %4, align 8
  ret i32 %5
}

; Function Attrs: mustprogress uwtable
define internal void @_ZN7V3Sched12_GLOBAL__N_123propagateDrivingRegionsEPNS0_20SchedReplicateVertexE(ptr noundef %0) #4 {
  %2 = alloca ptr, align 8
  %3 = alloca ptr, align 8
  %4 = alloca ptr, align 8
  %5 = alloca ptr, align 8
  %6 = alloca ptr, align 8
  %7 = alloca ptr, align 8
  %8 = alloca ptr, align 8
  %9 = alloca ptr, align 8
  %10 = alloca ptr, align 8
  %11 = alloca ptr, align 8
  %12 = alloca ptr, align 8
  %13 = alloca i8, align 1
  %14 = alloca ptr, align 8
  %15 = alloca %"class.V3List<V3GraphEdge, &V3GraphEdge::iLinks>::SimpleItertatorImpl", align 8
  %16 = alloca %"class.V3List<V3GraphEdge, &V3GraphEdge::iLinks>::SimpleItertatorImpl", align 8
  %17 = alloca ptr, align 8
  %18 = alloca ptr, align 8
  store ptr %0, ptr %12, align 8
  %19 = load ptr, ptr %12, align 8
  %20 = call noundef i32 @_ZNK13V3GraphVertex4userEv(ptr noundef nonnull align 8 dereferenceable(80) %19)
  %21 = icmp ne i32 %20, 0
  br i1 %21, label %22, label %23

22:                                               ; preds = %1
  br label %77

23:                                               ; preds = %1
  store i8 0, ptr %13, align 1
  %24 = load ptr, ptr %12, align 8
  %25 = call noundef nonnull align 8 dereferenceable(16) ptr @_ZN13V3GraphVertex7inEdgesEv(ptr noundef nonnull align 8 dereferenceable(80) %24)
  store ptr %25, ptr %14, align 8
  %26 = load ptr, ptr %14, align 8
  %27 = call ptr @_ZN6V3ListI11V3GraphEdgeXadL_ZNS0_6iLinksEvEES0_E5beginEv(ptr noundef nonnull align 8 dereferenceable(16) %26)
  %28 = getelementptr inbounds %"class.V3List<V3GraphEdge, &V3GraphEdge::iLinks>::SimpleItertatorImpl", ptr %15, i32 0, i32 0
  store ptr %27, ptr %28, align 8
  %29 = load ptr, ptr %14, align 8
  %30 = call ptr @_ZN6V3ListI11V3GraphEdgeXadL_ZNS0_6iLinksEvEES0_E3endEv(ptr noundef nonnull align 8 dereferenceable(16) %29)
  %31 = getelementptr inbounds %"class.V3List<V3GraphEdge, &V3GraphEdge::iLinks>::SimpleItertatorImpl", ptr %16, i32 0, i32 0
  store ptr %30, ptr %31, align 8
  br label %32

32:                                               ; preds = %66, %23
  store ptr %15, ptr %10, align 8
  store ptr %16, ptr %11, align 8
  %33 = load ptr, ptr %10, align 8
  %34 = load ptr, ptr %33, align 8
  %35 = load ptr, ptr %11, align 8
  %36 = load ptr, ptr %35, align 8
  %37 = icmp ne ptr %34, %36
  br i1 %37, label %38, label %73

38:                                               ; preds = %32
  store ptr %15, ptr %9, align 8
  %39 = load ptr, ptr %9, align 8
  %40 = load ptr, ptr %39, align 8
  store ptr %40, ptr %4, align 8
  %41 = load ptr, ptr %4, align 8
  store ptr %41, ptr %3, align 8
  %42 = load ptr, ptr %3, align 8
  %43 = call noundef nonnull align 8 dereferenceable(16) ptr @_ZN11V3GraphEdge6iLinksEv(ptr noundef nonnull align 8 dereferenceable(72) %42)
  %44 = load ptr, ptr %43, align 8
  %45 = load ptr, ptr %39, align 8
  store ptr %44, ptr %6, align 8
  store ptr %45, ptr %7, align 8
  %46 = load ptr, ptr %6, align 8
  %47 = icmp ne ptr %46, null
  br i1 %47, label %48, label %50

48:                                               ; preds = %38
  %49 = load ptr, ptr %6, align 8
  br label %52

50:                                               ; preds = %38
  %51 = load ptr, ptr %7, align 8
  br label %52

52:                                               ; preds = %50, %48
  %53 = phi ptr [ %49, %48 ], [ %51, %50 ]
  call void @llvm.prefetch.p0(ptr %53, i32 1, i32 3, i32 1)
  %54 = load ptr, ptr %39, align 8
  store ptr %54, ptr %17, align 8
  %55 = load ptr, ptr %17, align 8
  %56 = call noundef ptr @_ZNK11V3GraphEdge5frompEv(ptr noundef nonnull align 8 dereferenceable(72) %55)
  %57 = call noundef ptr @_ZN13V3GraphVertex2asIN7V3Sched12_GLOBAL__N_120SchedReplicateVertexEEEPT_v(ptr noundef nonnull align 8 dereferenceable(80) %56)
  store ptr %57, ptr %18, align 8
  %58 = load ptr, ptr %18, align 8
  call void @_ZN7V3Sched12_GLOBAL__N_123propagateDrivingRegionsEPNS0_20SchedReplicateVertexE(ptr noundef %58)
  %59 = load ptr, ptr %18, align 8
  %60 = call noundef zeroext i8 @_ZNK7V3Sched12_GLOBAL__N_120SchedReplicateVertex14drivingRegionsEv(ptr noundef nonnull align 8 dereferenceable(81) %59)
  %61 = zext i8 %60 to i32
  %62 = load i8, ptr %13, align 1
  %63 = zext i8 %62 to i32
  %64 = or i32 %63, %61
  %65 = trunc i32 %64 to i8
  store i8 %65, ptr %13, align 1
  br label %66

66:                                               ; preds = %52
  store ptr %15, ptr %8, align 8
  %67 = load ptr, ptr %8, align 8
  %68 = load ptr, ptr %67, align 8
  store ptr %68, ptr %5, align 8
  %69 = load ptr, ptr %5, align 8
  store ptr %69, ptr %2, align 8
  %70 = load ptr, ptr %2, align 8
  %71 = call noundef nonnull align 8 dereferenceable(16) ptr @_ZN11V3GraphEdge6iLinksEv(ptr noundef nonnull align 8 dereferenceable(72) %70)
  %72 = load ptr, ptr %71, align 8
  store ptr %72, ptr %67, align 8
  br label %32

73:                                               ; preds = %32
  %74 = load ptr, ptr %12, align 8
  %75 = load i8, ptr %13, align 1
  call void @_ZN7V3Sched12_GLOBAL__N_120SchedReplicateVertex17addDrivingRegionsEh(ptr noundef nonnull align 8 dereferenceable(81) %74, i8 noundef zeroext %75)
  %76 = load ptr, ptr %12, align 8
  call void @_ZN13V3GraphVertex4userEj(ptr noundef nonnull align 8 dereferenceable(80) %76, i32 noundef 1)
  br label %77

77:                                               ; preds = %73, %22
  ret void
}