; Function Attrs: mustprogress uwtable
define internal fastcc void @_ZN7V3Sched12_GLOBAL__N_123propagateDrivingRegionsEPNS0_20SchedReplicateVertexE(ptr nocapture noundef %0) unnamed_addr #3 {
  %2 = getelementptr inbounds i8, ptr %0, i64 72
  %3 = load i32, ptr %2, align 8
  %.not = icmp eq i32 %3, 0
  br i1 %.not, label %4, label %23

4:                                                ; preds = %1
  %5 = getelementptr inbounds i8, ptr %0, i64 40
  %.sroa.0.028 = load ptr, ptr %5, align 8
  %.not2629 = icmp eq ptr %.sroa.0.028, null
  br i1 %.not2629, label %._crit_edge, label %.lr.ph

.lr.ph:                                           ; preds = %4, %_ZN13V3GraphVertex2asIN7V3Sched12_GLOBAL__N_120SchedReplicateVertexEEEPT_v.exit
  %.sroa.0.031 = phi ptr [ %.sroa.0.0, %_ZN13V3GraphVertex2asIN7V3Sched12_GLOBAL__N_120SchedReplicateVertexEEEPT_v.exit ], [ %.sroa.0.028, %4 ]
  %.030 = phi i8 [ %19, %_ZN13V3GraphVertex2asIN7V3Sched12_GLOBAL__N_120SchedReplicateVertexEEEPT_v.exit ], [ 0, %4 ]
  %6 = getelementptr inbounds i8, ptr %.sroa.0.031, i64 24
  %7 = load ptr, ptr %6, align 8
  %.not27 = icmp eq ptr %7, null
  %8 = select i1 %.not27, ptr %.sroa.0.031, ptr %7
  tail call void @llvm.prefetch.p0(ptr nonnull %8, i32 1, i32 3, i32 1)
  %9 = getelementptr inbounds i8, ptr %.sroa.0.031, i64 40
  %10 = load ptr, ptr %9, align 8
  %11 = load ptr, ptr %10, align 8
  %12 = load ptr, ptr %11, align 8
  %13 = tail call noundef zeroext i1 %12(ptr noundef nonnull align 8 dereferenceable(80) %10, i64 noundef ptrtoint (ptr @_ZZN7V3Sched12_GLOBAL__N_120SchedReplicateVertex11rttiClassIdEvE15aStaticVariable to i64))
  br i1 %13, label %_ZN13V3GraphVertex2asIN7V3Sched12_GLOBAL__N_120SchedReplicateVertexEEEPT_v.exit, label %14

14:                                               ; preds = %.lr.ph
  %15 = tail call noundef nonnull align 8 dereferenceable(112) ptr @_ZN7V3Error19v3errorPrepFileLineB5cxx11E11V3ErrorCodePKcib(i8 4, ptr noundef nonnull @.str.37, i32 noundef 258, i1 noundef zeroext true)
  %16 = tail call noundef nonnull align 8 dereferenceable(112) ptr @_ZN7V3Error10v3errorStrB5cxx11Ev()
  %17 = tail call noundef nonnull align 8 dereferenceable(8) ptr @_ZStlsISt11char_traitsIcEERSt13basic_ostreamIcT_ES5_PKc(ptr noundef nonnull align 8 dereferenceable(8) %16, ptr noundef nonnull @.str.38)
  tail call void @_ZNK13V3GraphVertex15v3errorEndFatalERNSt7__cxx1119basic_ostringstreamIcSt11char_traitsIcESaIcEEE(ptr noundef nonnull align 8 dereferenceable(80) %10, ptr noundef nonnull align 8 dereferenceable(112) %17)
  br label %_ZN13V3GraphVertex2asIN7V3Sched12_GLOBAL__N_120SchedReplicateVertexEEEPT_v.exit

_ZN13V3GraphVertex2asIN7V3Sched12_GLOBAL__N_120SchedReplicateVertexEEEPT_v.exit: ; preds = %.lr.ph, %14
  tail call fastcc void @_ZN7V3Sched12_GLOBAL__N_123propagateDrivingRegionsEPNS0_20SchedReplicateVertexE(ptr noundef nonnull %10)
  %18 = getelementptr i8, ptr %10, i64 80
  %.val = load i8, ptr %18, align 8
  %19 = or i8 %.val, %.030
  %.sroa.0.0 = load ptr, ptr %6, align 8
  %.not26 = icmp eq ptr %.sroa.0.0, null
  br i1 %.not26, label %._crit_edge, label %.lr.ph

._crit_edge:                                      ; preds = %_ZN13V3GraphVertex2asIN7V3Sched12_GLOBAL__N_120SchedReplicateVertexEEEPT_v.exit, %4
  %.0.lcssa = phi i8 [ 0, %4 ], [ %19, %_ZN13V3GraphVertex2asIN7V3Sched12_GLOBAL__N_120SchedReplicateVertexEEEPT_v.exit ]
  %20 = getelementptr inbounds i8, ptr %0, i64 80
  %21 = load i8, ptr %20, align 8
  %22 = or i8 %21, %.0.lcssa
  store i8 %22, ptr %20, align 8
  store i32 1, ptr %2, align 8
  br label %23

23:                                               ; preds = %1, %._crit_edge
  ret void
}